target datalayout = "e-m:e-p270:32:32-p271:32:32-p272:64:64-i64:64-i128:128-f80:128-n8:16:32:64-S128"
target triple = "x86_64-pc-linux-gnu"

; Function Attrs: nounwind uwtable
define i32 @OSSL_PARAM_BLD_push_BN_pad(ptr noundef %0, ptr noundef %1, ptr noundef %2, i64 noundef %3) #0 {
  %5 = alloca i32, align 4
  %6 = alloca ptr, align 8
  %7 = alloca ptr, align 8
  %8 = alloca ptr, align 8
  %9 = alloca i64, align 8
  store ptr %0, ptr %6, align 8, !tbaa !3
  store ptr %1, ptr %7, align 8, !tbaa !17
  store ptr %2, ptr %8, align 8, !tbaa !23
  store i64 %3, ptr %9, align 8, !tbaa !20
  %10 = load ptr, ptr %8, align 8, !tbaa !23
  %11 = icmp ne ptr %10, null
  br i1 %11, label %12, label %26

12:                                               ; preds = %4
  %13 = load ptr, ptr %8, align 8, !tbaa !23
  %14 = call i32 @BN_is_negative(ptr noundef %13)
  %15 = icmp ne i32 %14, 0
  br i1 %15, label %16, label %26

16:                                               ; preds = %12
  %17 = load ptr, ptr %6, align 8, !tbaa !3
  %18 = load ptr, ptr %7, align 8, !tbaa !17
  %19 = load ptr, ptr %8, align 8, !tbaa !23
  %20 = load ptr, ptr %8, align 8, !tbaa !23
  %21 = call i32 @BN_num_bits(ptr noundef %20)
  %22 = add nsw i32 %21, 7
  %23 = sdiv i32 %22, 8
  %24 = sext i32 %23 to i64
  %25 = call i32 @push_BN(ptr noundef %17, ptr noundef %18, ptr noundef %19, i64 noundef %24, i32 noundef 1)
  store i32 %25, ptr %5, align 4
  br label %32

26:                                               ; preds = %12, %4
  %27 = load ptr, ptr %6, align 8, !tbaa !3
  %28 = load ptr, ptr %7, align 8, !tbaa !17
  %29 = load ptr, ptr %8, align 8, !tbaa !23
  %30 = load i64, ptr %9, align 8, !tbaa !20
  %31 = call i32 @push_BN(ptr noundef %27, ptr noundef %28, ptr noundef %29, i64 noundef %30, i32 noundef 2)
  store i32 %31, ptr %5, align 4
  br label %32

32:                                               ; preds = %26, %16
  %33 = load i32, ptr %5, align 4
  ret i32 %33
}