; Function Attrs: nounwind uwtable
define range(i32 0, 2) i32 @OSSL_PARAM_BLD_push_BN_pad(ptr noundef captures(none) %0, ptr noundef %1, ptr noundef %2, i64 noundef %3) local_unnamed_addr #0 {
  %.not = icmp eq ptr %2, null
  br i1 %.not, label %.split, label %21

.split:                                           ; preds = %4
  %5 = tail call noalias ptr @CRYPTO_zalloc(i64 noundef 56, ptr noundef nonnull @.str, i32 noundef 55) #7
  %6 = icmp eq ptr %5, null
  br i1 %6, label %push_BN.exit, label %7

7:                                                ; preds = %.split
  store ptr %1, ptr %5, align 8, !tbaa !14
  %8 = getelementptr inbounds nuw i8, ptr %5, i64 8
  store i32 2, ptr %8, align 8, !tbaa !18
  %9 = getelementptr inbounds nuw i8, ptr %5, i64 16
  store i64 %3, ptr %9, align 8, !tbaa !19
  %10 = tail call i64 @ossl_param_bytes_to_blocks(i64 noundef %3) #7
  %11 = getelementptr inbounds nuw i8, ptr %5, i64 24
  store i64 %10, ptr %11, align 8, !tbaa !20
  %12 = getelementptr inbounds nuw i8, ptr %5, i64 12
  store i32 0, ptr %12, align 4, !tbaa !21
  %13 = load i64, ptr %0, align 8, !tbaa !22
  %14 = add i64 %13, %10
  store i64 %14, ptr %0, align 8, !tbaa !22
  %15 = getelementptr inbounds nuw i8, ptr %0, i64 16
  %16 = load ptr, ptr %15, align 8, !tbaa !3
  %17 = tail call i32 @OPENSSL_sk_push(ptr noundef %16, ptr noundef nonnull %5) #7
  %18 = icmp slt i32 %17, 1
  br i1 %18, label %19, label %param_push.exit.i

19:                                               ; preds = %7
  tail call void @CRYPTO_free(ptr noundef nonnull %5, ptr noundef nonnull @.str, i32 noundef 68) #7
  br label %push_BN.exit

param_push.exit.i:                                ; preds = %7
  %20 = getelementptr inbounds nuw i8, ptr %5, i64 32
  store ptr null, ptr %20, align 8, !tbaa !26
  br label %push_BN.exit

21:                                               ; preds = %4
  %22 = tail call i32 @BN_is_negative(ptr noundef nonnull %2) #7
  %.not12 = icmp eq i32 %22, 0
  br i1 %.not12, label %.split10, label %24

.split10:                                         ; preds = %21
  %23 = tail call fastcc i32 @push_BN(ptr noundef %0, ptr noundef %1, ptr noundef nonnull %2, i64 noundef %3, i32 noundef 2)
  br label %push_BN.exit

24:                                               ; preds = %21
  %25 = tail call i32 @BN_num_bits(ptr noundef nonnull %2) #7
  %26 = add nsw i32 %25, 7
  %27 = sdiv i32 %26, 8
  %28 = sext i32 %27 to i64
  %29 = tail call fastcc i32 @push_BN(ptr noundef %0, ptr noundef %1, ptr noundef nonnull %2, i64 noundef %28, i32 noundef 1)
  br label %push_BN.exit

push_BN.exit:                                     ; preds = %param_push.exit.i, %19, %.split, %.split10, %24
  %.0 = phi i32 [ %29, %24 ], [ %23, %.split10 ], [ 1, %param_push.exit.i ], [ 0, %.split ], [ 0, %19 ]
  ret i32 %.0
}